; Function Attrs: null_pointer_is_valid sspstrong uwtable
define internal noundef zeroext i1 @k12text_seek_read(ptr noundef readonly captures(none) %0, i64 noundef %1, ptr noundef %2, ptr noundef %3, ptr noundef writeonly captures(none) %4) #0 {
  %6 = alloca %struct.k12text_state_t, align 8
  call void @llvm.lifetime.start.p0(i64 104, ptr nonnull %6) #27
  %7 = getelementptr inbounds nuw i8, ptr %0, i64 8
  %8 = load ptr, ptr %7, align 8
  %9 = tail call i64 @file_seek(ptr noundef %8, i64 noundef %1, i32 noundef 0, ptr noundef %3)
  %10 = icmp eq i64 %9, -1
  br i1 %10, label %59, label %11

11:                                               ; preds = %5
  %12 = tail call noalias dereferenceable_or_null(262144) ptr @g_malloc(i64 noundef 262144) #34
  %13 = getelementptr inbounds nuw i8, ptr %6, i64 56
  store ptr %12, ptr %13, align 8
  %14 = load ptr, ptr %7, align 8
  %calloc.i.i = tail call dereferenceable_or_null(144) ptr @calloc(i64 1, i64 144)
  %15 = icmp eq ptr %calloc.i.i, null
  br i1 %15, label %16, label %18

16:                                               ; preds = %11
  %17 = tail call ptr @__errno_location() #31
  store i32 12, ptr %17, align 4
  store i32 12, ptr %3, align 4
  br label %33

18:                                               ; preds = %11
  store ptr %14, ptr %6, align 8
  %19 = getelementptr inbounds nuw i8, ptr %6, i64 8
  store i32 0, ptr %19, align 8
  %20 = getelementptr inbounds nuw i8, ptr %6, i64 16
  store ptr null, ptr %20, align 8
  %21 = getelementptr inbounds nuw i8, ptr %6, i64 24
  store i32 2, ptr %21, align 8
  %22 = getelementptr inbounds nuw i8, ptr %6, i64 68
  store i8 0, ptr %22, align 4
  %23 = getelementptr inbounds nuw i8, ptr %6, i64 69
  store i8 0, ptr %23, align 1
  %24 = getelementptr inbounds nuw i8, ptr %6, i64 72
  store i32 0, ptr %24, align 8
  %25 = getelementptr inbounds nuw i8, ptr %6, i64 80
  %26 = getelementptr inbounds nuw i8, ptr %6, i64 28
  %27 = getelementptr inbounds nuw i8, ptr %6, i64 64
  store i32 0, ptr %27, align 8
  call void @llvm.memset.p0.i64(ptr noundef nonnull align 4 dereferenceable(24) %26, i8 0, i64 24, i1 false)
  call void @llvm.memset.p0.i64(ptr noundef nonnull align 8 dereferenceable(17) %25, i8 0, i64 17, i1 false)
  store ptr %6, ptr %calloc.i.i, align 8
  %28 = call i32 @k12text_lex(ptr noundef nonnull %calloc.i.i)
  %29 = call i32 @k12text_lex_destroy(ptr noundef nonnull %calloc.i.i)
  %30 = load i32, ptr %19, align 8
  switch i32 %30, label %31 [
    i32 0, label %35
    i32 -12, label %35
  ]

31:                                               ; preds = %18
  store i32 %30, ptr %3, align 4
  %32 = load ptr, ptr %20, align 8
  %.pre = load ptr, ptr %13, align 8
  br label %33

33:                                               ; preds = %31, %16
  %34 = phi ptr [ %.pre, %31 ], [ %12, %16 ]
  %.sink.i = phi ptr [ %32, %31 ], [ null, %16 ]
  store ptr %.sink.i, ptr %4, align 8
  br label %.sink.split

35:                                               ; preds = %18, %18
  %36 = getelementptr inbounds nuw i8, ptr %6, i64 96
  %37 = load i8, ptr %36, align 8, !range !15, !noundef !16
  %38 = icmp eq i8 %37, 0
  br i1 %38, label %39, label %48

39:                                               ; preds = %35
  store i32 -13, ptr %3, align 4
  %40 = load i8, ptr %23, align 1, !range !15, !noundef !16
  %41 = trunc nuw i8 %40 to i1
  br i1 %41, label %42, label %44

42:                                               ; preds = %39
  %43 = call noalias ptr @g_strdup(ptr noundef nonnull @.str.19)
  br label %46

44:                                               ; preds = %39
  %45 = load ptr, ptr %25, align 8
  br label %46

46:                                               ; preds = %44, %42
  %storemerge = phi ptr [ %45, %44 ], [ %43, %42 ]
  store ptr %storemerge, ptr %4, align 8
  %47 = load ptr, ptr %13, align 8
  br label %.sink.split

48:                                               ; preds = %35
  %49 = call fastcc zeroext i1 @k12text_set_headers(ptr noundef %2, ptr noundef nonnull %6, ptr noundef %3, ptr noundef %4)
  br i1 %49, label %52, label %50

50:                                               ; preds = %48
  %51 = load ptr, ptr %13, align 8
  br label %.sink.split

52:                                               ; preds = %48
  %53 = getelementptr inbounds nuw i8, ptr %2, i64 280
  %54 = load ptr, ptr %13, align 8
  %55 = getelementptr inbounds nuw i8, ptr %2, i64 64
  %56 = load i32, ptr %55, align 8
  %57 = zext i32 %56 to i64
  call void @ws_buffer_append(ptr noundef nonnull %53, ptr noundef %54, i64 noundef %57)
  %58 = load ptr, ptr %13, align 8
  br label %.sink.split

.sink.split:                                      ; preds = %33, %46, %50, %52
  %.sink = phi ptr [ %58, %52 ], [ %51, %50 ], [ %47, %46 ], [ %34, %33 ]
  %.0.ph = phi i1 [ true, %52 ], [ false, %50 ], [ false, %46 ], [ false, %33 ]
  call void @g_free(ptr noundef %.sink)
  br label %59

59:                                               ; preds = %.sink.split, %5
  %.0 = phi i1 [ false, %5 ], [ %.0.ph, %.sink.split ]
  call void @llvm.lifetime.end.p0(i64 104, ptr nonnull %6) #27
  ret i1 %.0
}